target datalayout = "e-m:e-p270:32:32-p271:32:32-p272:64:64-i64:64-i128:128-f80:128-n8:16:32:64-S128"
target triple = "x86_64-unknown-linux-gnu"

%"struct.node::node_module" = type { i32, i32, ptr, ptr, ptr, ptr, ptr, ptr, ptr }
%struct.napi_module = type { i32, i32, ptr, ptr, ptr, ptr, [4 x ptr] }

; Function Attrs: mustprogress nounwind uwtable
define dso_local void @_ZN4node26napi_module_to_node_moduleEPK11napi_module(ptr noalias sret(%"struct.node::node_module") align 8 %agg.result, ptr noundef %mod) #4 {
entry:
  %mod.addr = alloca ptr, align 8
  store ptr %mod, ptr %mod.addr, align 8
  %nm_version = getelementptr inbounds %"struct.node::node_module", ptr %agg.result, i32 0, i32 0
  store i32 -1, ptr %nm_version, align 8
  %nm_flags = getelementptr inbounds %"struct.node::node_module", ptr %agg.result, i32 0, i32 1
  %0 = load ptr, ptr %mod.addr, align 8
  %nm_flags1 = getelementptr inbounds %struct.napi_module, ptr %0, i32 0, i32 1
  %1 = load i32, ptr %nm_flags1, align 4
  %or = or i32 %1, 8
  store i32 %or, ptr %nm_flags, align 4
  %nm_dso_handle = getelementptr inbounds %"struct.node::node_module", ptr %agg.result, i32 0, i32 2
  store ptr null, ptr %nm_dso_handle, align 8
  %nm_filename = getelementptr inbounds %"struct.node::node_module", ptr %agg.result, i32 0, i32 3
  %2 = load ptr, ptr %mod.addr, align 8
  %nm_filename2 = getelementptr inbounds %struct.napi_module, ptr %2, i32 0, i32 2
  %3 = load ptr, ptr %nm_filename2, align 8
  store ptr %3, ptr %nm_filename, align 8
  %nm_register_func = getelementptr inbounds %"struct.node::node_module", ptr %agg.result, i32 0, i32 4
  store ptr null, ptr %nm_register_func, align 8
  %nm_context_register_func = getelementptr inbounds %"struct.node::node_module", ptr %agg.result, i32 0, i32 5
  store ptr @_ZL23napi_module_register_cbN2v85LocalINS_6ObjectEEENS0_INS_5ValueEEENS0_INS_7ContextEEEPv, ptr %nm_context_register_func, align 8
  %nm_modname = getelementptr inbounds %"struct.node::node_module", ptr %agg.result, i32 0, i32 6
  %4 = load ptr, ptr %mod.addr, align 8
  %nm_modname3 = getelementptr inbounds %struct.napi_module, ptr %4, i32 0, i32 4
  %5 = load ptr, ptr %nm_modname3, align 8
  store ptr %5, ptr %nm_modname, align 8
  %nm_priv = getelementptr inbounds %"struct.node::node_module", ptr %agg.result, i32 0, i32 7
  %6 = load ptr, ptr %mod.addr, align 8
  store ptr %6, ptr %nm_priv, align 8
  %nm_link = getelementptr inbounds %"struct.node::node_module", ptr %agg.result, i32 0, i32 8
  store ptr null, ptr %nm_link, align 8
  ret void
}