; Function Attrs: mustprogress nofree norecurse nosync nounwind willreturn memory(argmem: readwrite) uwtable
define dso_local void @_ZN4node26napi_module_to_node_moduleEPK11napi_module(ptr noalias nocapture writeonly sret(%"struct.node::node_module") align 8 %agg.result, ptr noundef %mod) local_unnamed_addr #5 {
entry:
  store i32 -1, ptr %agg.result, align 8
  %nm_flags = getelementptr inbounds i8, ptr %agg.result, i64 4
  %nm_flags1 = getelementptr inbounds i8, ptr %mod, i64 4
  %0 = load i32, ptr %nm_flags1, align 4
  %or = or i32 %0, 8
  store i32 %or, ptr %nm_flags, align 4
  %nm_dso_handle = getelementptr inbounds i8, ptr %agg.result, i64 8
  store ptr null, ptr %nm_dso_handle, align 8
  %nm_filename = getelementptr inbounds i8, ptr %agg.result, i64 16
  %nm_filename2 = getelementptr inbounds i8, ptr %mod, i64 8
  %1 = load ptr, ptr %nm_filename2, align 8
  store ptr %1, ptr %nm_filename, align 8
  %nm_register_func = getelementptr inbounds i8, ptr %agg.result, i64 24
  store ptr null, ptr %nm_register_func, align 8
  %nm_context_register_func = getelementptr inbounds i8, ptr %agg.result, i64 32
  store ptr @_ZL23napi_module_register_cbN2v85LocalINS_6ObjectEEENS0_INS_5ValueEEENS0_INS_7ContextEEEPv, ptr %nm_context_register_func, align 8
  %nm_modname = getelementptr inbounds i8, ptr %agg.result, i64 40
  %nm_modname3 = getelementptr inbounds i8, ptr %mod, i64 24
  %2 = load ptr, ptr %nm_modname3, align 8
  store ptr %2, ptr %nm_modname, align 8
  %nm_priv = getelementptr inbounds i8, ptr %agg.result, i64 48
  store ptr %mod, ptr %nm_priv, align 8
  %nm_link = getelementptr inbounds i8, ptr %agg.result, i64 56
  store ptr null, ptr %nm_link, align 8
  ret void
}